target datalayout = "e-m:e-p270:32:32-p271:32:32-p272:64:64-i64:64-i128:128-f80:128-n8:16:32:64-S128"
target triple = "x86_64-pc-linux-gnu"

; Function Attrs: mustprogress nounwind uwtable
define internal noundef i32 @_ZL10sizeofintsiPKj(i32 noundef %0, ptr noundef %1) #3 {
  %3 = alloca i32, align 4
  %4 = alloca ptr, align 8
  %5 = alloca i32, align 4
  %6 = alloca i32, align 4
  %7 = alloca [32 x i32], align 16
  %8 = alloca i32, align 4
  %9 = alloca i32, align 4
  %10 = alloca i32, align 4
  %11 = alloca i32, align 4
  store i32 %0, ptr %3, align 4, !tbaa !13
  store ptr %1, ptr %4, align 8, !tbaa !21
  call void @llvm.lifetime.start.p0(i64 4, ptr %5) #11
  call void @llvm.lifetime.start.p0(i64 4, ptr %6) #11
  call void @llvm.lifetime.start.p0(i64 128, ptr %7) #11
  call void @llvm.lifetime.start.p0(i64 4, ptr %8) #11
  call void @llvm.lifetime.start.p0(i64 4, ptr %9) #11
  call void @llvm.lifetime.start.p0(i64 4, ptr %10) #11
  call void @llvm.lifetime.start.p0(i64 4, ptr %11) #11
  store i32 1, ptr %8, align 4, !tbaa !13
  %12 = getelementptr inbounds [32 x i32], ptr %7, i64 0, i64 0
  store i32 1, ptr %12, align 16, !tbaa !13
  store i32 0, ptr %9, align 4, !tbaa !13
  store i32 0, ptr %5, align 4, !tbaa !13
  br label %13

13:                                               ; preds = %60, %2
  %14 = load i32, ptr %5, align 4, !tbaa !13
  %15 = load i32, ptr %3, align 4, !tbaa !13
  %16 = icmp slt i32 %14, %15
  br i1 %16, label %17, label %63

17:                                               ; preds = %13
  store i32 0, ptr %11, align 4, !tbaa !13
  store i32 0, ptr %10, align 4, !tbaa !13
  br label %18

18:                                               ; preds = %42, %17
  %19 = load i32, ptr %10, align 4, !tbaa !13
  %20 = load i32, ptr %8, align 4, !tbaa !13
  %21 = icmp ult i32 %19, %20
  br i1 %21, label %22, label %45

22:                                               ; preds = %18
  %23 = load i32, ptr %10, align 4, !tbaa !13
  %24 = zext i32 %23 to i64
  %25 = getelementptr inbounds nuw [32 x i32], ptr %7, i64 0, i64 %24
  %26 = load i32, ptr %25, align 4, !tbaa !13
  %27 = load ptr, ptr %4, align 8, !tbaa !21
  %28 = load i32, ptr %5, align 4, !tbaa !13
  %29 = sext i32 %28 to i64
  %30 = getelementptr inbounds i32, ptr %27, i64 %29
  %31 = load i32, ptr %30, align 4, !tbaa !13
  %32 = mul i32 %26, %31
  %33 = load i32, ptr %11, align 4, !tbaa !13
  %34 = add i32 %32, %33
  store i32 %34, ptr %11, align 4, !tbaa !13
  %35 = load i32, ptr %11, align 4, !tbaa !13
  %36 = and i32 %35, 255
  %37 = load i32, ptr %10, align 4, !tbaa !13
  %38 = zext i32 %37 to i64
  %39 = getelementptr inbounds nuw [32 x i32], ptr %7, i64 0, i64 %38
  store i32 %36, ptr %39, align 4, !tbaa !13
  %40 = load i32, ptr %11, align 4, !tbaa !13
  %41 = lshr i32 %40, 8
  store i32 %41, ptr %11, align 4, !tbaa !13
  br label %42

42:                                               ; preds = %22
  %43 = load i32, ptr %10, align 4, !tbaa !13
  %44 = add i32 %43, 1
  store i32 %44, ptr %10, align 4, !tbaa !13
  br label %18, !llvm.loop !52

45:                                               ; preds = %18
  br label %46

46:                                               ; preds = %49, %45
  %47 = load i32, ptr %11, align 4, !tbaa !13
  %48 = icmp ne i32 %47, 0
  br i1 %48, label %49, label %58

49:                                               ; preds = %46
  %50 = load i32, ptr %11, align 4, !tbaa !13
  %51 = and i32 %50, 255
  %52 = load i32, ptr %10, align 4, !tbaa !13
  %53 = add i32 %52, 1
  store i32 %53, ptr %10, align 4, !tbaa !13
  %54 = zext i32 %52 to i64
  %55 = getelementptr inbounds nuw [32 x i32], ptr %7, i64 0, i64 %54
  store i32 %51, ptr %55, align 4, !tbaa !13
  %56 = load i32, ptr %11, align 4, !tbaa !13
  %57 = lshr i32 %56, 8
  store i32 %57, ptr %11, align 4, !tbaa !13
  br label %46, !llvm.loop !53

58:                                               ; preds = %46
  %59 = load i32, ptr %10, align 4, !tbaa !13
  store i32 %59, ptr %8, align 4, !tbaa !13
  br label %60

60:                                               ; preds = %58
  %61 = load i32, ptr %5, align 4, !tbaa !13
  %62 = add nsw i32 %61, 1
  store i32 %62, ptr %5, align 4, !tbaa !13
  br label %13, !llvm.loop !54

63:                                               ; preds = %13
  store i32 1, ptr %6, align 4, !tbaa !13
  %64 = load i32, ptr %8, align 4, !tbaa !13
  %65 = add i32 %64, -1
  store i32 %65, ptr %8, align 4, !tbaa !13
  br label %66

66:                                               ; preds = %73, %63
  %67 = load i32, ptr %8, align 4, !tbaa !13
  %68 = zext i32 %67 to i64
  %69 = getelementptr inbounds nuw [32 x i32], ptr %7, i64 0, i64 %68
  %70 = load i32, ptr %69, align 4, !tbaa !13
  %71 = load i32, ptr %6, align 4, !tbaa !13
  %72 = icmp sge i32 %70, %71
  br i1 %72, label %73, label %78

73:                                               ; preds = %66
  %74 = load i32, ptr %9, align 4, !tbaa !13
  %75 = add i32 %74, 1
  store i32 %75, ptr %9, align 4, !tbaa !13
  %76 = load i32, ptr %6, align 4, !tbaa !13
  %77 = mul nsw i32 %76, 2
  store i32 %77, ptr %6, align 4, !tbaa !13
  br label %66, !llvm.loop !55

78:                                               ; preds = %66
  %79 = load i32, ptr %9, align 4, !tbaa !13
  %80 = load i32, ptr %8, align 4, !tbaa !13
  %81 = mul i32 %80, 8
  %82 = add i32 %79, %81
  call void @llvm.lifetime.end.p0(i64 4, ptr %11) #11
  call void @llvm.lifetime.end.p0(i64 4, ptr %10) #11
  call void @llvm.lifetime.end.p0(i64 4, ptr %9) #11
  call void @llvm.lifetime.end.p0(i64 4, ptr %8) #11
  call void @llvm.lifetime.end.p0(i64 128, ptr %7) #11
  call void @llvm.lifetime.end.p0(i64 4, ptr %6) #11
  call void @llvm.lifetime.end.p0(i64 4, ptr %5) #11
  ret i32 %82
}