; Function Attrs: mustprogress nofree norecurse nosync nounwind willreturn memory(argmem: read) uwtable
define internal fastcc noundef i32 @_ZL10sizeofintsiPKj(ptr noundef nonnull readonly captures(none) %0) unnamed_addr #10 {
  %2 = alloca [32 x i32], align 16
  call void @llvm.lifetime.start.p0(i64 128, ptr nonnull %2) #17
  store i32 1, ptr %2, align 16, !tbaa !16
  br label %.preheader31

.preheader31:                                     ; preds = %1, %._crit_edge
  %indvars.iv54 = phi i64 [ 0, %1 ], [ %indvars.iv.next55, %._crit_edge ]
  %.02741 = phi i32 [ 1, %1 ], [ %.125.lcssa, %._crit_edge ]
  %.not49 = icmp eq i32 %.02741, 0
  br i1 %.not49, label %._crit_edge, label %.lr.ph

.lr.ph:                                           ; preds = %.preheader31
  %3 = getelementptr inbounds nuw i32, ptr %0, i64 %indvars.iv54
  %4 = load i32, ptr %3, align 4, !tbaa !16
  %wide.trip.count = zext i32 %.02741 to i64
  br label %5

.preheader:                                       ; preds = %5
  %.not3035 = icmp ult i32 %9, 256
  br i1 %.not3035, label %._crit_edge, label %.lr.ph38

5:                                                ; preds = %.lr.ph, %5
  %indvars.iv = phi i64 [ 0, %.lr.ph ], [ %indvars.iv.next, %5 ]
  %.033 = phi i32 [ 0, %.lr.ph ], [ %11, %5 ]
  %6 = getelementptr inbounds nuw [32 x i32], ptr %2, i64 0, i64 %indvars.iv
  %7 = load i32, ptr %6, align 4, !tbaa !16
  %8 = mul i32 %4, %7
  %9 = add i32 %8, %.033
  %10 = and i32 %9, 255
  store i32 %10, ptr %6, align 4, !tbaa !16
  %11 = lshr i32 %9, 8
  %indvars.iv.next = add nuw nsw i64 %indvars.iv, 1
  %exitcond.not = icmp eq i64 %indvars.iv.next, %wide.trip.count
  br i1 %exitcond.not, label %.preheader, label %5, !llvm.loop !38

.lr.ph38:                                         ; preds = %.preheader, %.lr.ph38
  %.137 = phi i32 [ %16, %.lr.ph38 ], [ %11, %.preheader ]
  %.12536 = phi i32 [ %13, %.lr.ph38 ], [ %.02741, %.preheader ]
  %12 = and i32 %.137, 255
  %13 = add i32 %.12536, 1
  %14 = zext i32 %.12536 to i64
  %15 = getelementptr inbounds nuw [32 x i32], ptr %2, i64 0, i64 %14
  store i32 %12, ptr %15, align 4, !tbaa !16
  %16 = lshr i32 %.137, 8
  %.not30 = icmp samesign ult i32 %.137, 256
  br i1 %.not30, label %._crit_edge, label %.lr.ph38, !llvm.loop !39

._crit_edge:                                      ; preds = %.lr.ph38, %.preheader31, %.preheader
  %.125.lcssa = phi i32 [ %.02741, %.preheader ], [ 0, %.preheader31 ], [ %13, %.lr.ph38 ]
  %indvars.iv.next55 = add nuw nsw i64 %indvars.iv54, 1
  %exitcond57.not = icmp eq i64 %indvars.iv.next55, 3
  br i1 %exitcond57.not, label %17, label %.preheader31, !llvm.loop !40

17:                                               ; preds = %._crit_edge
  %18 = add i32 %.125.lcssa, -1
  %19 = zext i32 %18 to i64
  %20 = getelementptr inbounds nuw [32 x i32], ptr %2, i64 0, i64 %19
  %21 = load i32, ptr %20, align 4, !tbaa !16
  %.not42 = icmp slt i32 %21, 1
  br i1 %.not42, label %._crit_edge47, label %.lr.ph46

.lr.ph46:                                         ; preds = %17, %.lr.ph46
  %.02644 = phi i32 [ %22, %.lr.ph46 ], [ 0, %17 ]
  %.02843 = phi i32 [ %23, %.lr.ph46 ], [ 1, %17 ]
  %22 = add i32 %.02644, 1
  %23 = shl nsw i32 %.02843, 1
  %.not = icmp slt i32 %21, %23
  br i1 %.not, label %._crit_edge47, label %.lr.ph46, !llvm.loop !41

._crit_edge47:                                    ; preds = %.lr.ph46, %17
  %.026.lcssa = phi i32 [ 0, %17 ], [ %22, %.lr.ph46 ]
  %24 = shl i32 %18, 3
  %25 = add i32 %.026.lcssa, %24
  call void @llvm.lifetime.end.p0(i64 128, ptr nonnull %2) #17
  ret i32 %25
}